target datalayout = "e-m:e-p270:32:32-p271:32:32-p272:64:64-i64:64-i128:128-f80:128-n8:16:32:64-S128"
target triple = "x86_64-pc-linux-gnu"

%struct.CONF_VALUE = type { ptr, ptr, ptr }
%struct.DIST_POINT_NAME_st = type { i32, %union.anon, ptr }
%union.anon = type { ptr }
%struct.X509_name_st = type { ptr, i32, ptr, ptr, i32 }
%struct.X509_name_entry_st = type { ptr, ptr, i32, i32 }

@DIST_POINT_NAME_it.local_it = internal constant { i8, [7 x i8], i64, ptr, i64, ptr, i64, ptr } { i8 2, [7 x i8] zeroinitializer, i64 0, ptr @DIST_POINT_NAME_ch_tt, i64 2, ptr @DIST_POINT_NAME_aux, i64 24, ptr @.str }, align 8
@.str.5 = private unnamed_addr constant [33 x i8] c"../openssl/crypto/x509/v3_crld.c\00", align 1
@__func__.set_dist_point_name = private unnamed_addr constant [20 x i8] c"set_dist_point_name\00", align 1
@.str.8 = private unnamed_addr constant [9 x i8] c"fullname\00", align 1
@.str.9 = private unnamed_addr constant [13 x i8] c"relativename\00", align 1

; Function Attrs: nounwind uwtable
define ptr @DIST_POINT_NAME_it() #0 {
  ret ptr @DIST_POINT_NAME_it.local_it
}

; Function Attrs: inlinehint nounwind uwtable
define internal ptr @ossl_check_X509_NAME_ENTRY_freefunc_type(ptr noundef %0) #3 {
  %2 = alloca ptr, align 8
  store ptr %0, ptr %2, align 8, !tbaa !20
  %3 = load ptr, ptr %2, align 8, !tbaa !20
  ret ptr %3
}

; Function Attrs: inlinehint nounwind uwtable
define internal ptr @ossl_check_X509_NAME_ENTRY_sk_type(ptr noundef %0) #3 {
  %2 = alloca ptr, align 8
  store ptr %0, ptr %2, align 8, !tbaa !67
  %3 = load ptr, ptr %2, align 8, !tbaa !67
  ret ptr %3
}

; Function Attrs: inlinehint nounwind uwtable
define internal ptr @ossl_check_GENERAL_NAME_freefunc_type(ptr noundef %0) #3 {
  %2 = alloca ptr, align 8
  store ptr %0, ptr %2, align 8, !tbaa !20
  %3 = load ptr, ptr %2, align 8, !tbaa !20
  ret ptr %3
}

; Function Attrs: inlinehint nounwind uwtable
define internal ptr @ossl_check_GENERAL_NAME_sk_type(ptr noundef %0) #3 {
  %2 = alloca ptr, align 8
  store ptr %0, ptr %2, align 8, !tbaa !12
  %3 = load ptr, ptr %2, align 8, !tbaa !12
  ret ptr %3
}

; Function Attrs: nounwind uwtable
define ptr @DIST_POINT_NAME_new() #0 {
  %1 = call ptr @DIST_POINT_NAME_it()
  %2 = call ptr @ASN1_item_new(ptr noundef %1)
  ret ptr %2
}

; Function Attrs: inlinehint nounwind uwtable
define internal ptr @ossl_check_const_X509_NAME_ENTRY_sk_type(ptr noundef %0) #3 {
  %2 = alloca ptr, align 8
  store ptr %0, ptr %2, align 8, !tbaa !67
  %3 = load ptr, ptr %2, align 8, !tbaa !67
  ret ptr %3
}

; Function Attrs: nounwind uwtable
define internal i32 @set_dist_point_name(ptr noundef %0, ptr noundef %1, ptr noundef %2) #0 {
  %4 = alloca i32, align 4
  %5 = alloca ptr, align 8
  %6 = alloca ptr, align 8
  %7 = alloca ptr, align 8
  %8 = alloca ptr, align 8
  %9 = alloca ptr, align 8
  %10 = alloca i32, align 4
  %11 = alloca ptr, align 8
  %12 = alloca ptr, align 8
  %13 = alloca i32, align 4
  store ptr %0, ptr %5, align 8, !tbaa !42
  store ptr %1, ptr %6, align 8, !tbaa !8
  store ptr %2, ptr %7, align 8, !tbaa !20
  call void @llvm.lifetime.start.p0(i64 8, ptr %8) #5
  store ptr null, ptr %8, align 8, !tbaa !12
  call void @llvm.lifetime.start.p0(i64 8, ptr %9) #5
  store ptr null, ptr %9, align 8, !tbaa !67
  %14 = load ptr, ptr %7, align 8, !tbaa !20
  %15 = getelementptr inbounds nuw %struct.CONF_VALUE, ptr %14, i32 0, i32 2
  %16 = load ptr, ptr %15, align 8, !tbaa !21
  %17 = icmp eq ptr %16, null
  br i1 %17, label %18, label %19

18:                                               ; preds = %3
  call void @ERR_new()
  call void @ERR_set_debug(ptr noundef @.str.5, i32 noundef 74, ptr noundef @__func__.set_dist_point_name)
  call void (i32, i32, ptr, ...) @ERR_set_error(i32 noundef 34, i32 noundef 124, ptr noundef null)
  br label %126

19:                                               ; preds = %3
  %20 = load ptr, ptr %7, align 8, !tbaa !20
  %21 = getelementptr inbounds nuw %struct.CONF_VALUE, ptr %20, i32 0, i32 1
  %22 = load ptr, ptr %21, align 8, !tbaa !24
  %23 = call i32 @strncmp(ptr noundef %22, ptr noundef @.str.8, i64 noundef 8) #6
  %24 = icmp eq i32 %23, 0
  br i1 %24, label %25, label %35

25:                                               ; preds = %19
  %26 = load ptr, ptr %6, align 8, !tbaa !8
  %27 = load ptr, ptr %7, align 8, !tbaa !20
  %28 = getelementptr inbounds nuw %struct.CONF_VALUE, ptr %27, i32 0, i32 2
  %29 = load ptr, ptr %28, align 8, !tbaa !21
  %30 = call ptr @gnames_from_sectname(ptr noundef %26, ptr noundef %29)
  store ptr %30, ptr %8, align 8, !tbaa !12
  %31 = load ptr, ptr %8, align 8, !tbaa !12
  %32 = icmp ne ptr %31, null
  br i1 %32, label %34, label %33

33:                                               ; preds = %25
  br label %126

34:                                               ; preds = %25
  br label %94

35:                                               ; preds = %19
  %36 = load ptr, ptr %7, align 8, !tbaa !20
  %37 = getelementptr inbounds nuw %struct.CONF_VALUE, ptr %36, i32 0, i32 1
  %38 = load ptr, ptr %37, align 8, !tbaa !24
  %39 = call i32 @strcmp(ptr noundef %38, ptr noundef @.str.9) #6
  %40 = icmp eq i32 %39, 0
  br i1 %40, label %41, label %92

41:                                               ; preds = %35
  call void @llvm.lifetime.start.p0(i64 4, ptr %10) #5
  call void @llvm.lifetime.start.p0(i64 8, ptr %11) #5
  call void @llvm.lifetime.start.p0(i64 8, ptr %12) #5
  %42 = call ptr @X509_NAME_new()
  store ptr %42, ptr %12, align 8, !tbaa !66
  %43 = load ptr, ptr %12, align 8, !tbaa !66
  %44 = icmp eq ptr %43, null
  br i1 %44, label %45, label %46

45:                                               ; preds = %41
  store i32 -1, ptr %4, align 4
  store i32 1, ptr %13, align 4
  br label %89

46:                                               ; preds = %41
  %47 = load ptr, ptr %6, align 8, !tbaa !8
  %48 = load ptr, ptr %7, align 8, !tbaa !20
  %49 = getelementptr inbounds nuw %struct.CONF_VALUE, ptr %48, i32 0, i32 2
  %50 = load ptr, ptr %49, align 8, !tbaa !21
  %51 = call ptr @X509V3_get_section(ptr noundef %47, ptr noundef %50)
  store ptr %51, ptr %11, align 8, !tbaa !10
  %52 = load ptr, ptr %11, align 8, !tbaa !10
  %53 = icmp ne ptr %52, null
  br i1 %53, label %56, label %54

54:                                               ; preds = %46
  %55 = load ptr, ptr %12, align 8, !tbaa !66
  call void @X509_NAME_free(ptr noundef %55)
  call void @ERR_new()
  call void @ERR_set_debug(ptr noundef @.str.5, i32 noundef 92, ptr noundef @__func__.set_dist_point_name)
  call void (i32, i32, ptr, ...) @ERR_set_error(i32 noundef 34, i32 noundef 150, ptr noundef null)
  store i32 -1, ptr %4, align 4
  store i32 1, ptr %13, align 4
  br label %89

56:                                               ; preds = %46
  %57 = load ptr, ptr %12, align 8, !tbaa !66
  %58 = load ptr, ptr %11, align 8, !tbaa !10
  %59 = call i32 @X509V3_NAME_from_section(ptr noundef %57, ptr noundef %58, i64 noundef 4097)
  store i32 %59, ptr %10, align 4, !tbaa !16
  %60 = load ptr, ptr %6, align 8, !tbaa !8
  %61 = load ptr, ptr %11, align 8, !tbaa !10
  call void @X509V3_section_free(ptr noundef %60, ptr noundef %61)
  %62 = load ptr, ptr %12, align 8, !tbaa !66
  %63 = getelementptr inbounds nuw %struct.X509_name_st, ptr %62, i32 0, i32 0
  %64 = load ptr, ptr %63, align 8, !tbaa !85
  store ptr %64, ptr %9, align 8, !tbaa !67
  %65 = load ptr, ptr %12, align 8, !tbaa !66
  %66 = getelementptr inbounds nuw %struct.X509_name_st, ptr %65, i32 0, i32 0
  store ptr null, ptr %66, align 8, !tbaa !85
  %67 = load ptr, ptr %12, align 8, !tbaa !66
  call void @X509_NAME_free(ptr noundef %67)
  %68 = load i32, ptr %10, align 4, !tbaa !16
  %69 = icmp ne i32 %68, 0
  br i1 %69, label %70, label %75

70:                                               ; preds = %56
  %71 = load ptr, ptr %9, align 8, !tbaa !67
  %72 = call ptr @ossl_check_const_X509_NAME_ENTRY_sk_type(ptr noundef %71)
  %73 = call i32 @OPENSSL_sk_num(ptr noundef %72)
  %74 = icmp sle i32 %73, 0
  br i1 %74, label %75, label %76

75:                                               ; preds = %70, %56
  store i32 2, ptr %13, align 4
  br label %89

76:                                               ; preds = %70
  %77 = load ptr, ptr %9, align 8, !tbaa !67
  %78 = call ptr @ossl_check_const_X509_NAME_ENTRY_sk_type(ptr noundef %77)
  %79 = load ptr, ptr %9, align 8, !tbaa !67
  %80 = call ptr @ossl_check_const_X509_NAME_ENTRY_sk_type(ptr noundef %79)
  %81 = call i32 @OPENSSL_sk_num(ptr noundef %80)
  %82 = sub nsw i32 %81, 1
  %83 = call ptr @OPENSSL_sk_value(ptr noundef %78, i32 noundef %82)
  %84 = getelementptr inbounds nuw %struct.X509_name_entry_st, ptr %83, i32 0, i32 2
  %85 = load i32, ptr %84, align 8, !tbaa !88
  %86 = icmp ne i32 %85, 0
  br i1 %86, label %87, label %88

87:                                               ; preds = %76
  call void @ERR_new()
  call void @ERR_set_debug(ptr noundef @.str.5, i32 noundef 107, ptr noundef @__func__.set_dist_point_name)
  call void (i32, i32, ptr, ...) @ERR_set_error(i32 noundef 34, i32 noundef 161, ptr noundef null)
  store i32 2, ptr %13, align 4
  br label %89

88:                                               ; preds = %76
  store i32 0, ptr %13, align 4
  br label %89

89:                                               ; preds = %87, %75, %88, %54, %45
  call void @llvm.lifetime.end.p0(i64 8, ptr %12) #5
  call void @llvm.lifetime.end.p0(i64 8, ptr %11) #5
  call void @llvm.lifetime.end.p0(i64 4, ptr %10) #5
  %90 = load i32, ptr %13, align 4
  switch i32 %90, label %133 [
    i32 0, label %91
    i32 2, label %126
  ]

91:                                               ; preds = %89
  br label %93

92:                                               ; preds = %35
  store i32 0, ptr %4, align 4
  store i32 1, ptr %13, align 4
  br label %133

93:                                               ; preds = %91
  br label %94

94:                                               ; preds = %93, %34
  %95 = load ptr, ptr %5, align 8, !tbaa !42
  %96 = load ptr, ptr %95, align 8, !tbaa !48
  %97 = icmp ne ptr %96, null
  br i1 %97, label %98, label %99

98:                                               ; preds = %94
  call void @ERR_new()
  call void @ERR_set_debug(ptr noundef @.str.5, i32 noundef 114, ptr noundef @__func__.set_dist_point_name)
  call void (i32, i32, ptr, ...) @ERR_set_error(i32 noundef 34, i32 noundef 160, ptr noundef null)
  br label %126

99:                                               ; preds = %94
  %100 = call ptr @DIST_POINT_NAME_new()
  %101 = load ptr, ptr %5, align 8, !tbaa !42
  store ptr %100, ptr %101, align 8, !tbaa !48
  %102 = load ptr, ptr %5, align 8, !tbaa !42
  %103 = load ptr, ptr %102, align 8, !tbaa !48
  %104 = icmp eq ptr %103, null
  br i1 %104, label %105, label %106

105:                                              ; preds = %99
  br label %126

106:                                              ; preds = %99
  %107 = load ptr, ptr %8, align 8, !tbaa !12
  %108 = icmp ne ptr %107, null
  br i1 %108, label %109, label %117

109:                                              ; preds = %106
  %110 = load ptr, ptr %5, align 8, !tbaa !42
  %111 = load ptr, ptr %110, align 8, !tbaa !48
  %112 = getelementptr inbounds nuw %struct.DIST_POINT_NAME_st, ptr %111, i32 0, i32 0
  store i32 0, ptr %112, align 8, !tbaa !32
  %113 = load ptr, ptr %8, align 8, !tbaa !12
  %114 = load ptr, ptr %5, align 8, !tbaa !42
  %115 = load ptr, ptr %114, align 8, !tbaa !48
  %116 = getelementptr inbounds nuw %struct.DIST_POINT_NAME_st, ptr %115, i32 0, i32 1
  store ptr %113, ptr %116, align 8, !tbaa !31
  br label %125

117:                                              ; preds = %106
  %118 = load ptr, ptr %5, align 8, !tbaa !42
  %119 = load ptr, ptr %118, align 8, !tbaa !48
  %120 = getelementptr inbounds nuw %struct.DIST_POINT_NAME_st, ptr %119, i32 0, i32 0
  store i32 1, ptr %120, align 8, !tbaa !32
  %121 = load ptr, ptr %9, align 8, !tbaa !67
  %122 = load ptr, ptr %5, align 8, !tbaa !42
  %123 = load ptr, ptr %122, align 8, !tbaa !48
  %124 = getelementptr inbounds nuw %struct.DIST_POINT_NAME_st, ptr %123, i32 0, i32 1
  store ptr %121, ptr %124, align 8, !tbaa !31
  br label %125

125:                                              ; preds = %117, %109
  store i32 1, ptr %4, align 4
  store i32 1, ptr %13, align 4
  br label %133

126:                                              ; preds = %89, %105, %98, %33, %18
  %127 = load ptr, ptr %8, align 8, !tbaa !12
  %128 = call ptr @ossl_check_GENERAL_NAME_sk_type(ptr noundef %127)
  %129 = call ptr @ossl_check_GENERAL_NAME_freefunc_type(ptr noundef @GENERAL_NAME_free)
  call void @OPENSSL_sk_pop_free(ptr noundef %128, ptr noundef %129)
  %130 = load ptr, ptr %9, align 8, !tbaa !67
  %131 = call ptr @ossl_check_X509_NAME_ENTRY_sk_type(ptr noundef %130)
  %132 = call ptr @ossl_check_X509_NAME_ENTRY_freefunc_type(ptr noundef @X509_NAME_ENTRY_free)
  call void @OPENSSL_sk_pop_free(ptr noundef %131, ptr noundef %132)
  store i32 -1, ptr %4, align 4
  store i32 1, ptr %13, align 4
  br label %133

133:                                              ; preds = %126, %125, %92, %89
  call void @llvm.lifetime.end.p0(i64 8, ptr %9) #5
  call void @llvm.lifetime.end.p0(i64 8, ptr %8) #5
  %134 = load i32, ptr %4, align 4
  ret i32 %134
}