; Function Attrs: nounwind uwtable
define internal fastcc range(i32 -1, 2) i32 @set_dist_point_name(ptr noundef nonnull captures(none) %0, ptr noundef %1, ptr noundef readonly captures(none) %2) unnamed_addr #1 {
  %4 = getelementptr inbounds nuw i8, ptr %2, i64 16
  %5 = load ptr, ptr %4, align 8, !tbaa !3
  %6 = icmp eq ptr %5, null
  br i1 %6, label %.thread.sink.split, label %7

7:                                                ; preds = %3
  %8 = getelementptr inbounds nuw i8, ptr %2, i64 8
  %9 = load ptr, ptr %8, align 8, !tbaa !9
  %10 = tail call i32 @strncmp(ptr noundef nonnull dereferenceable(1) %9, ptr noundef nonnull dereferenceable(9) @.str.8, i64 noundef 8) #6
  %11 = icmp eq i32 %10, 0
  br i1 %11, label %12, label %14

12:                                               ; preds = %7
  %13 = tail call fastcc ptr @gnames_from_sectname(ptr noundef %1, ptr noundef nonnull %5)
  %.not48 = icmp eq ptr %13, null
  br i1 %.not48, label %.thread, label %36

14:                                               ; preds = %7
  %15 = tail call i32 @strcmp(ptr noundef nonnull dereferenceable(1) %9, ptr noundef nonnull dereferenceable(13) @.str.9) #6
  %16 = icmp eq i32 %15, 0
  br i1 %16, label %17, label %.thread54

17:                                               ; preds = %14
  %18 = tail call ptr @X509_NAME_new() #5
  %19 = icmp eq ptr %18, null
  br i1 %19, label %.thread54, label %20

20:                                               ; preds = %17
  %21 = load ptr, ptr %4, align 8, !tbaa !3
  %22 = tail call ptr @X509V3_get_section(ptr noundef %1, ptr noundef %21) #5
  %.not = icmp eq ptr %22, null
  br i1 %.not, label %23, label %24

23:                                               ; preds = %20
  tail call void @X509_NAME_free(ptr noundef nonnull %18) #5
  tail call void @ERR_new() #5
  tail call void @ERR_set_debug(ptr noundef nonnull @.str.5, i32 noundef 92, ptr noundef nonnull @__func__.set_dist_point_name) #5
  tail call void (i32, i32, ptr, ...) @ERR_set_error(i32 noundef 34, i32 noundef 150, ptr noundef null) #5
  br label %.thread54

24:                                               ; preds = %20
  %25 = tail call i32 @X509V3_NAME_from_section(ptr noundef nonnull %18, ptr noundef nonnull %22, i64 noundef 4097) #5
  tail call void @X509V3_section_free(ptr noundef %1, ptr noundef nonnull %22) #5
  %26 = load ptr, ptr %18, align 8, !tbaa !48
  store ptr null, ptr %18, align 8, !tbaa !48
  tail call void @X509_NAME_free(ptr noundef nonnull %18) #5
  %.not46 = icmp eq i32 %25, 0
  br i1 %.not46, label %.thread, label %27

27:                                               ; preds = %24
  %28 = tail call i32 @OPENSSL_sk_num(ptr noundef %26) #5
  %29 = icmp slt i32 %28, 1
  br i1 %29, label %.thread, label %30

30:                                               ; preds = %27
  %31 = tail call i32 @OPENSSL_sk_num(ptr noundef %26) #5
  %32 = add nsw i32 %31, -1
  %33 = tail call ptr @OPENSSL_sk_value(ptr noundef %26, i32 noundef %32) #5
  %34 = getelementptr inbounds nuw i8, ptr %33, i64 16
  %35 = load i32, ptr %34, align 8, !tbaa !52
  %.not47 = icmp eq i32 %35, 0
  br i1 %.not47, label %36, label %.thread.sink.split

36:                                               ; preds = %30, %12
  %.139 = phi ptr [ null, %12 ], [ %26, %30 ]
  %.137 = phi ptr [ %13, %12 ], [ null, %30 ]
  %37 = load ptr, ptr %0, align 8, !tbaa !55
  %.not49 = icmp eq ptr %37, null
  br i1 %.not49, label %38, label %.thread.sink.split

38:                                               ; preds = %36
  %39 = tail call ptr @ASN1_item_new(ptr noundef nonnull @DIST_POINT_NAME_it.local_it) #5
  store ptr %39, ptr %0, align 8, !tbaa !55
  %40 = icmp eq ptr %39, null
  br i1 %40, label %.thread, label %41

41:                                               ; preds = %38
  %.not50 = icmp eq ptr %.137, null
  %42 = getelementptr inbounds nuw i8, ptr %39, i64 8
  br i1 %.not50, label %44, label %43

43:                                               ; preds = %41
  store i32 0, ptr %39, align 8, !tbaa !20
  store ptr %.137, ptr %42, align 8, !tbaa !19
  br label %.thread54

44:                                               ; preds = %41
  store i32 1, ptr %39, align 8, !tbaa !20
  store ptr %.139, ptr %42, align 8, !tbaa !19
  br label %.thread54

.thread.sink.split:                               ; preds = %36, %30, %3
  %.sink57 = phi i32 [ 74, %3 ], [ 107, %30 ], [ 114, %36 ]
  %.sink = phi i32 [ 124, %3 ], [ 161, %30 ], [ 160, %36 ]
  %.038.ph = phi ptr [ null, %3 ], [ %26, %30 ], [ %.139, %36 ]
  %.036.ph = phi ptr [ null, %3 ], [ null, %30 ], [ %.137, %36 ]
  tail call void @ERR_new() #5
  tail call void @ERR_set_debug(ptr noundef nonnull @.str.5, i32 noundef %.sink57, ptr noundef nonnull @__func__.set_dist_point_name) #5
  tail call void (i32, i32, ptr, ...) @ERR_set_error(i32 noundef 34, i32 noundef %.sink, ptr noundef null) #5
  br label %.thread

.thread:                                          ; preds = %.thread.sink.split, %24, %27, %38, %12
  %.038 = phi ptr [ %.139, %38 ], [ null, %12 ], [ %26, %27 ], [ %26, %24 ], [ %.038.ph, %.thread.sink.split ]
  %.036 = phi ptr [ %.137, %38 ], [ null, %12 ], [ null, %27 ], [ null, %24 ], [ %.036.ph, %.thread.sink.split ]
  tail call void @OPENSSL_sk_pop_free(ptr noundef %.036, ptr noundef nonnull @GENERAL_NAME_free) #5
  tail call void @OPENSSL_sk_pop_free(ptr noundef %.038, ptr noundef nonnull @X509_NAME_ENTRY_free) #5
  br label %.thread54

.thread54:                                        ; preds = %17, %23, %43, %44, %14, %.thread
  %.1 = phi i32 [ -1, %.thread ], [ 0, %14 ], [ 1, %44 ], [ 1, %43 ], [ -1, %23 ], [ -1, %17 ]
  ret i32 %.1
}